ccopy_reg
_reconstructor
p1
(cargparse
Namespace
p2
c__builtin__
object
p3
NtRp4
(dp5
S'num_epochs'
p6
I250
sS'grad_clip'
p7
F5
sS'rnn_size'
p8
I800
sS'data_dir'
p9
S'/home/local/ASUAD/yzha3/research/planning/shallow-plan-master/src/blocks/rnnTrain'
p10
sS'vocab_size'
p11
I1250
sS'input_encoding'
p12
NsS'save_dir'
p13
S'/home/local/ASUAD/yzha3/research/planning/shallow-plan-master/src/blocks/rnnModel8'
p14
sS'init_from'
p15
NsS'seq_length'
p16
I25
sS'batch_size'
p17
I50
sS'learning_rate'
p18
F0.002
sS'decay_rate'
p19
F0.96999999999999997
sS'gpu_mem'
p20
F0.88
sS'log_dir'
p21
S'/home/local/ASUAD/yzha3/research/planning/shallow-plan-master/src/blocks/log8'
p22
sS'num_layers'
p23
I2
sS'model'
p24
S'lstm'
p25
sS'save_every'
p26
I1000
sb.