((lp1
S'PICK-UP-B1'
p2
aS'PICK-UP-B10'
p3
aS'PICK-UP-B11'
p4
aS'PICK-UP-B12'
p5
aS'PICK-UP-B13'
p6
aS'PICK-UP-B14'
p7
aS'PICK-UP-B15'
p8
aS'PICK-UP-B16'
p9
aS'PICK-UP-B17'
p10
aS'PICK-UP-B18'
p11
aS'PICK-UP-B19'
p12
aS'PICK-UP-B2'
p13
aS'PICK-UP-B20'
p14
aS'PICK-UP-B21'
p15
aS'PICK-UP-B22'
p16
aS'PICK-UP-B23'
p17
aS'PICK-UP-B24'
p18
aS'PICK-UP-B25'
p19
aS'PICK-UP-B3'
p20
aS'PICK-UP-B4'
p21
aS'PICK-UP-B5'
p22
aS'PICK-UP-B6'
p23
aS'PICK-UP-B7'
p24
aS'PICK-UP-B8'
p25
aS'PICK-UP-B9'
p26
aS'PUT-DOWN-B1'
p27
aS'PUT-DOWN-B10'
p28
aS'PUT-DOWN-B11'
p29
aS'PUT-DOWN-B12'
p30
aS'PUT-DOWN-B13'
p31
aS'PUT-DOWN-B14'
p32
aS'PUT-DOWN-B15'
p33
aS'PUT-DOWN-B16'
p34
aS'PUT-DOWN-B17'
p35
aS'PUT-DOWN-B18'
p36
aS'PUT-DOWN-B19'
p37
aS'PUT-DOWN-B2'
p38
aS'PUT-DOWN-B20'
p39
aS'PUT-DOWN-B21'
p40
aS'PUT-DOWN-B22'
p41
aS'PUT-DOWN-B23'
p42
aS'PUT-DOWN-B24'
p43
aS'PUT-DOWN-B25'
p44
aS'PUT-DOWN-B3'
p45
aS'PUT-DOWN-B4'
p46
aS'PUT-DOWN-B5'
p47
aS'PUT-DOWN-B6'
p48
aS'PUT-DOWN-B7'
p49
aS'PUT-DOWN-B8'
p50
aS'PUT-DOWN-B9'
p51
aS'STACK-B1-B10'
p52
aS'STACK-B1-B11'
p53
aS'STACK-B1-B12'
p54
aS'STACK-B1-B13'
p55
aS'STACK-B1-B14'
p56
aS'STACK-B1-B15'
p57
aS'STACK-B1-B16'
p58
aS'STACK-B1-B17'
p59
aS'STACK-B1-B18'
p60
aS'STACK-B1-B19'
p61
aS'STACK-B1-B2'
p62
aS'STACK-B1-B20'
p63
aS'STACK-B1-B21'
p64
aS'STACK-B1-B22'
p65
aS'STACK-B1-B23'
p66
aS'STACK-B1-B24'
p67
aS'STACK-B1-B25'
p68
aS'STACK-B1-B3'
p69
aS'STACK-B1-B4'
p70
aS'STACK-B1-B5'
p71
aS'STACK-B1-B6'
p72
aS'STACK-B1-B7'
p73
aS'STACK-B1-B8'
p74
aS'STACK-B1-B9'
p75
aS'STACK-B10-B1'
p76
aS'STACK-B10-B11'
p77
aS'STACK-B10-B12'
p78
aS'STACK-B10-B13'
p79
aS'STACK-B10-B14'
p80
aS'STACK-B10-B15'
p81
aS'STACK-B10-B16'
p82
aS'STACK-B10-B17'
p83
aS'STACK-B10-B18'
p84
aS'STACK-B10-B19'
p85
aS'STACK-B10-B2'
p86
aS'STACK-B10-B20'
p87
aS'STACK-B10-B21'
p88
aS'STACK-B10-B22'
p89
aS'STACK-B10-B23'
p90
aS'STACK-B10-B24'
p91
aS'STACK-B10-B25'
p92
aS'STACK-B10-B3'
p93
aS'STACK-B10-B4'
p94
aS'STACK-B10-B5'
p95
aS'STACK-B10-B6'
p96
aS'STACK-B10-B7'
p97
aS'STACK-B10-B8'
p98
aS'STACK-B10-B9'
p99
aS'STACK-B11-B1'
p100
aS'STACK-B11-B10'
p101
aS'STACK-B11-B12'
p102
aS'STACK-B11-B13'
p103
aS'STACK-B11-B14'
p104
aS'STACK-B11-B15'
p105
aS'STACK-B11-B16'
p106
aS'STACK-B11-B17'
p107
aS'STACK-B11-B18'
p108
aS'STACK-B11-B19'
p109
aS'STACK-B11-B2'
p110
aS'STACK-B11-B20'
p111
aS'STACK-B11-B21'
p112
aS'STACK-B11-B22'
p113
aS'STACK-B11-B23'
p114
aS'STACK-B11-B24'
p115
aS'STACK-B11-B25'
p116
aS'STACK-B11-B3'
p117
aS'STACK-B11-B4'
p118
aS'STACK-B11-B5'
p119
aS'STACK-B11-B6'
p120
aS'STACK-B11-B7'
p121
aS'STACK-B11-B8'
p122
aS'STACK-B11-B9'
p123
aS'STACK-B12-B1'
p124
aS'STACK-B12-B10'
p125
aS'STACK-B12-B11'
p126
aS'STACK-B12-B13'
p127
aS'STACK-B12-B14'
p128
aS'STACK-B12-B15'
p129
aS'STACK-B12-B16'
p130
aS'STACK-B12-B17'
p131
aS'STACK-B12-B18'
p132
aS'STACK-B12-B19'
p133
aS'STACK-B12-B2'
p134
aS'STACK-B12-B20'
p135
aS'STACK-B12-B21'
p136
aS'STACK-B12-B22'
p137
aS'STACK-B12-B23'
p138
aS'STACK-B12-B24'
p139
aS'STACK-B12-B25'
p140
aS'STACK-B12-B3'
p141
aS'STACK-B12-B4'
p142
aS'STACK-B12-B5'
p143
aS'STACK-B12-B6'
p144
aS'STACK-B12-B7'
p145
aS'STACK-B12-B8'
p146
aS'STACK-B12-B9'
p147
aS'STACK-B13-B1'
p148
aS'STACK-B13-B10'
p149
aS'STACK-B13-B11'
p150
aS'STACK-B13-B12'
p151
aS'STACK-B13-B14'
p152
aS'STACK-B13-B15'
p153
aS'STACK-B13-B16'
p154
aS'STACK-B13-B17'
p155
aS'STACK-B13-B18'
p156
aS'STACK-B13-B19'
p157
aS'STACK-B13-B2'
p158
aS'STACK-B13-B20'
p159
aS'STACK-B13-B21'
p160
aS'STACK-B13-B22'
p161
aS'STACK-B13-B23'
p162
aS'STACK-B13-B24'
p163
aS'STACK-B13-B25'
p164
aS'STACK-B13-B3'
p165
aS'STACK-B13-B4'
p166
aS'STACK-B13-B5'
p167
aS'STACK-B13-B6'
p168
aS'STACK-B13-B7'
p169
aS'STACK-B13-B8'
p170
aS'STACK-B13-B9'
p171
aS'STACK-B14-B1'
p172
aS'STACK-B14-B10'
p173
aS'STACK-B14-B11'
p174
aS'STACK-B14-B12'
p175
aS'STACK-B14-B13'
p176
aS'STACK-B14-B15'
p177
aS'STACK-B14-B16'
p178
aS'STACK-B14-B17'
p179
aS'STACK-B14-B18'
p180
aS'STACK-B14-B19'
p181
aS'STACK-B14-B2'
p182
aS'STACK-B14-B20'
p183
aS'STACK-B14-B21'
p184
aS'STACK-B14-B22'
p185
aS'STACK-B14-B23'
p186
aS'STACK-B14-B24'
p187
aS'STACK-B14-B25'
p188
aS'STACK-B14-B3'
p189
aS'STACK-B14-B4'
p190
aS'STACK-B14-B5'
p191
aS'STACK-B14-B6'
p192
aS'STACK-B14-B7'
p193
aS'STACK-B14-B8'
p194
aS'STACK-B14-B9'
p195
aS'STACK-B15-B1'
p196
aS'STACK-B15-B10'
p197
aS'STACK-B15-B11'
p198
aS'STACK-B15-B12'
p199
aS'STACK-B15-B13'
p200
aS'STACK-B15-B14'
p201
aS'STACK-B15-B16'
p202
aS'STACK-B15-B17'
p203
aS'STACK-B15-B18'
p204
aS'STACK-B15-B19'
p205
aS'STACK-B15-B2'
p206
aS'STACK-B15-B20'
p207
aS'STACK-B15-B21'
p208
aS'STACK-B15-B22'
p209
aS'STACK-B15-B23'
p210
aS'STACK-B15-B24'
p211
aS'STACK-B15-B25'
p212
aS'STACK-B15-B3'
p213
aS'STACK-B15-B4'
p214
aS'STACK-B15-B5'
p215
aS'STACK-B15-B6'
p216
aS'STACK-B15-B7'
p217
aS'STACK-B15-B8'
p218
aS'STACK-B15-B9'
p219
aS'STACK-B16-B1'
p220
aS'STACK-B16-B10'
p221
aS'STACK-B16-B11'
p222
aS'STACK-B16-B12'
p223
aS'STACK-B16-B13'
p224
aS'STACK-B16-B14'
p225
aS'STACK-B16-B15'
p226
aS'STACK-B16-B17'
p227
aS'STACK-B16-B18'
p228
aS'STACK-B16-B19'
p229
aS'STACK-B16-B2'
p230
aS'STACK-B16-B20'
p231
aS'STACK-B16-B21'
p232
aS'STACK-B16-B22'
p233
aS'STACK-B16-B23'
p234
aS'STACK-B16-B24'
p235
aS'STACK-B16-B25'
p236
aS'STACK-B16-B3'
p237
aS'STACK-B16-B4'
p238
aS'STACK-B16-B5'
p239
aS'STACK-B16-B6'
p240
aS'STACK-B16-B7'
p241
aS'STACK-B16-B8'
p242
aS'STACK-B16-B9'
p243
aS'STACK-B17-B1'
p244
aS'STACK-B17-B10'
p245
aS'STACK-B17-B11'
p246
aS'STACK-B17-B12'
p247
aS'STACK-B17-B13'
p248
aS'STACK-B17-B14'
p249
aS'STACK-B17-B15'
p250
aS'STACK-B17-B16'
p251
aS'STACK-B17-B18'
p252
aS'STACK-B17-B19'
p253
aS'STACK-B17-B2'
p254
aS'STACK-B17-B20'
p255
aS'STACK-B17-B21'
p256
aS'STACK-B17-B22'
p257
aS'STACK-B17-B23'
p258
aS'STACK-B17-B24'
p259
aS'STACK-B17-B25'
p260
aS'STACK-B17-B3'
p261
aS'STACK-B17-B4'
p262
aS'STACK-B17-B5'
p263
aS'STACK-B17-B6'
p264
aS'STACK-B17-B7'
p265
aS'STACK-B17-B8'
p266
aS'STACK-B17-B9'
p267
aS'STACK-B18-B1'
p268
aS'STACK-B18-B10'
p269
aS'STACK-B18-B11'
p270
aS'STACK-B18-B12'
p271
aS'STACK-B18-B13'
p272
aS'STACK-B18-B14'
p273
aS'STACK-B18-B15'
p274
aS'STACK-B18-B16'
p275
aS'STACK-B18-B17'
p276
aS'STACK-B18-B19'
p277
aS'STACK-B18-B2'
p278
aS'STACK-B18-B20'
p279
aS'STACK-B18-B21'
p280
aS'STACK-B18-B22'
p281
aS'STACK-B18-B23'
p282
aS'STACK-B18-B24'
p283
aS'STACK-B18-B25'
p284
aS'STACK-B18-B3'
p285
aS'STACK-B18-B4'
p286
aS'STACK-B18-B5'
p287
aS'STACK-B18-B6'
p288
aS'STACK-B18-B7'
p289
aS'STACK-B18-B8'
p290
aS'STACK-B18-B9'
p291
aS'STACK-B19-B1'
p292
aS'STACK-B19-B10'
p293
aS'STACK-B19-B11'
p294
aS'STACK-B19-B12'
p295
aS'STACK-B19-B13'
p296
aS'STACK-B19-B14'
p297
aS'STACK-B19-B15'
p298
aS'STACK-B19-B16'
p299
aS'STACK-B19-B17'
p300
aS'STACK-B19-B18'
p301
aS'STACK-B19-B2'
p302
aS'STACK-B19-B20'
p303
aS'STACK-B19-B21'
p304
aS'STACK-B19-B22'
p305
aS'STACK-B19-B23'
p306
aS'STACK-B19-B24'
p307
aS'STACK-B19-B25'
p308
aS'STACK-B19-B3'
p309
aS'STACK-B19-B4'
p310
aS'STACK-B19-B5'
p311
aS'STACK-B19-B6'
p312
aS'STACK-B19-B7'
p313
aS'STACK-B19-B8'
p314
aS'STACK-B19-B9'
p315
aS'STACK-B2-B1'
p316
aS'STACK-B2-B10'
p317
aS'STACK-B2-B11'
p318
aS'STACK-B2-B12'
p319
aS'STACK-B2-B13'
p320
aS'STACK-B2-B14'
p321
aS'STACK-B2-B15'
p322
aS'STACK-B2-B16'
p323
aS'STACK-B2-B17'
p324
aS'STACK-B2-B18'
p325
aS'STACK-B2-B19'
p326
aS'STACK-B2-B20'
p327
aS'STACK-B2-B21'
p328
aS'STACK-B2-B22'
p329
aS'STACK-B2-B23'
p330
aS'STACK-B2-B24'
p331
aS'STACK-B2-B25'
p332
aS'STACK-B2-B3'
p333
aS'STACK-B2-B4'
p334
aS'STACK-B2-B5'
p335
aS'STACK-B2-B6'
p336
aS'STACK-B2-B7'
p337
aS'STACK-B2-B8'
p338
aS'STACK-B2-B9'
p339
aS'STACK-B20-B1'
p340
aS'STACK-B20-B10'
p341
aS'STACK-B20-B11'
p342
aS'STACK-B20-B12'
p343
aS'STACK-B20-B13'
p344
aS'STACK-B20-B14'
p345
aS'STACK-B20-B15'
p346
aS'STACK-B20-B16'
p347
aS'STACK-B20-B17'
p348
aS'STACK-B20-B18'
p349
aS'STACK-B20-B19'
p350
aS'STACK-B20-B2'
p351
aS'STACK-B20-B21'
p352
aS'STACK-B20-B22'
p353
aS'STACK-B20-B23'
p354
aS'STACK-B20-B24'
p355
aS'STACK-B20-B25'
p356
aS'STACK-B20-B3'
p357
aS'STACK-B20-B4'
p358
aS'STACK-B20-B5'
p359
aS'STACK-B20-B6'
p360
aS'STACK-B20-B7'
p361
aS'STACK-B20-B8'
p362
aS'STACK-B20-B9'
p363
aS'STACK-B21-B1'
p364
aS'STACK-B21-B10'
p365
aS'STACK-B21-B11'
p366
aS'STACK-B21-B12'
p367
aS'STACK-B21-B13'
p368
aS'STACK-B21-B14'
p369
aS'STACK-B21-B15'
p370
aS'STACK-B21-B16'
p371
aS'STACK-B21-B17'
p372
aS'STACK-B21-B18'
p373
aS'STACK-B21-B19'
p374
aS'STACK-B21-B2'
p375
aS'STACK-B21-B20'
p376
aS'STACK-B21-B22'
p377
aS'STACK-B21-B23'
p378
aS'STACK-B21-B24'
p379
aS'STACK-B21-B25'
p380
aS'STACK-B21-B3'
p381
aS'STACK-B21-B4'
p382
aS'STACK-B21-B5'
p383
aS'STACK-B21-B6'
p384
aS'STACK-B21-B7'
p385
aS'STACK-B21-B8'
p386
aS'STACK-B21-B9'
p387
aS'STACK-B22-B1'
p388
aS'STACK-B22-B10'
p389
aS'STACK-B22-B11'
p390
aS'STACK-B22-B12'
p391
aS'STACK-B22-B13'
p392
aS'STACK-B22-B14'
p393
aS'STACK-B22-B15'
p394
aS'STACK-B22-B16'
p395
aS'STACK-B22-B17'
p396
aS'STACK-B22-B18'
p397
aS'STACK-B22-B19'
p398
aS'STACK-B22-B2'
p399
aS'STACK-B22-B20'
p400
aS'STACK-B22-B21'
p401
aS'STACK-B22-B23'
p402
aS'STACK-B22-B24'
p403
aS'STACK-B22-B25'
p404
aS'STACK-B22-B3'
p405
aS'STACK-B22-B4'
p406
aS'STACK-B22-B5'
p407
aS'STACK-B22-B6'
p408
aS'STACK-B22-B7'
p409
aS'STACK-B22-B8'
p410
aS'STACK-B22-B9'
p411
aS'STACK-B23-B1'
p412
aS'STACK-B23-B10'
p413
aS'STACK-B23-B11'
p414
aS'STACK-B23-B12'
p415
aS'STACK-B23-B13'
p416
aS'STACK-B23-B14'
p417
aS'STACK-B23-B15'
p418
aS'STACK-B23-B16'
p419
aS'STACK-B23-B17'
p420
aS'STACK-B23-B18'
p421
aS'STACK-B23-B19'
p422
aS'STACK-B23-B2'
p423
aS'STACK-B23-B20'
p424
aS'STACK-B23-B21'
p425
aS'STACK-B23-B22'
p426
aS'STACK-B23-B24'
p427
aS'STACK-B23-B25'
p428
aS'STACK-B23-B3'
p429
aS'STACK-B23-B4'
p430
aS'STACK-B23-B5'
p431
aS'STACK-B23-B6'
p432
aS'STACK-B23-B7'
p433
aS'STACK-B23-B8'
p434
aS'STACK-B23-B9'
p435
aS'STACK-B24-B1'
p436
aS'STACK-B24-B10'
p437
aS'STACK-B24-B11'
p438
aS'STACK-B24-B12'
p439
aS'STACK-B24-B13'
p440
aS'STACK-B24-B14'
p441
aS'STACK-B24-B15'
p442
aS'STACK-B24-B16'
p443
aS'STACK-B24-B17'
p444
aS'STACK-B24-B18'
p445
aS'STACK-B24-B19'
p446
aS'STACK-B24-B2'
p447
aS'STACK-B24-B20'
p448
aS'STACK-B24-B21'
p449
aS'STACK-B24-B22'
p450
aS'STACK-B24-B23'
p451
aS'STACK-B24-B25'
p452
aS'STACK-B24-B3'
p453
aS'STACK-B24-B4'
p454
aS'STACK-B24-B5'
p455
aS'STACK-B24-B6'
p456
aS'STACK-B24-B7'
p457
aS'STACK-B24-B8'
p458
aS'STACK-B24-B9'
p459
aS'STACK-B25-B1'
p460
aS'STACK-B25-B10'
p461
aS'STACK-B25-B11'
p462
aS'STACK-B25-B12'
p463
aS'STACK-B25-B13'
p464
aS'STACK-B25-B14'
p465
aS'STACK-B25-B15'
p466
aS'STACK-B25-B16'
p467
aS'STACK-B25-B17'
p468
aS'STACK-B25-B18'
p469
aS'STACK-B25-B19'
p470
aS'STACK-B25-B2'
p471
aS'STACK-B25-B20'
p472
aS'STACK-B25-B21'
p473
aS'STACK-B25-B22'
p474
aS'STACK-B25-B23'
p475
aS'STACK-B25-B24'
p476
aS'STACK-B25-B3'
p477
aS'STACK-B25-B4'
p478
aS'STACK-B25-B5'
p479
aS'STACK-B25-B6'
p480
aS'STACK-B25-B7'
p481
aS'STACK-B25-B8'
p482
aS'STACK-B25-B9'
p483
aS'STACK-B3-B1'
p484
aS'STACK-B3-B10'
p485
aS'STACK-B3-B11'
p486
aS'STACK-B3-B12'
p487
aS'STACK-B3-B13'
p488
aS'STACK-B3-B14'
p489
aS'STACK-B3-B15'
p490
aS'STACK-B3-B16'
p491
aS'STACK-B3-B17'
p492
aS'STACK-B3-B18'
p493
aS'STACK-B3-B19'
p494
aS'STACK-B3-B2'
p495
aS'STACK-B3-B20'
p496
aS'STACK-B3-B21'
p497
aS'STACK-B3-B22'
p498
aS'STACK-B3-B23'
p499
aS'STACK-B3-B24'
p500
aS'STACK-B3-B25'
p501
aS'STACK-B3-B4'
p502
aS'STACK-B3-B5'
p503
aS'STACK-B3-B6'
p504
aS'STACK-B3-B7'
p505
aS'STACK-B3-B8'
p506
aS'STACK-B3-B9'
p507
aS'STACK-B4-B1'
p508
aS'STACK-B4-B10'
p509
aS'STACK-B4-B11'
p510
aS'STACK-B4-B12'
p511
aS'STACK-B4-B13'
p512
aS'STACK-B4-B14'
p513
aS'STACK-B4-B15'
p514
aS'STACK-B4-B16'
p515
aS'STACK-B4-B17'
p516
aS'STACK-B4-B18'
p517
aS'STACK-B4-B19'
p518
aS'STACK-B4-B2'
p519
aS'STACK-B4-B20'
p520
aS'STACK-B4-B21'
p521
aS'STACK-B4-B22'
p522
aS'STACK-B4-B23'
p523
aS'STACK-B4-B24'
p524
aS'STACK-B4-B25'
p525
aS'STACK-B4-B3'
p526
aS'STACK-B4-B5'
p527
aS'STACK-B4-B6'
p528
aS'STACK-B4-B7'
p529
aS'STACK-B4-B8'
p530
aS'STACK-B4-B9'
p531
aS'STACK-B5-B1'
p532
aS'STACK-B5-B10'
p533
aS'STACK-B5-B11'
p534
aS'STACK-B5-B12'
p535
aS'STACK-B5-B13'
p536
aS'STACK-B5-B14'
p537
aS'STACK-B5-B15'
p538
aS'STACK-B5-B16'
p539
aS'STACK-B5-B17'
p540
aS'STACK-B5-B18'
p541
aS'STACK-B5-B19'
p542
aS'STACK-B5-B2'
p543
aS'STACK-B5-B20'
p544
aS'STACK-B5-B21'
p545
aS'STACK-B5-B22'
p546
aS'STACK-B5-B23'
p547
aS'STACK-B5-B24'
p548
aS'STACK-B5-B25'
p549
aS'STACK-B5-B3'
p550
aS'STACK-B5-B4'
p551
aS'STACK-B5-B6'
p552
aS'STACK-B5-B7'
p553
aS'STACK-B5-B8'
p554
aS'STACK-B5-B9'
p555
aS'STACK-B6-B1'
p556
aS'STACK-B6-B10'
p557
aS'STACK-B6-B11'
p558
aS'STACK-B6-B12'
p559
aS'STACK-B6-B13'
p560
aS'STACK-B6-B14'
p561
aS'STACK-B6-B15'
p562
aS'STACK-B6-B16'
p563
aS'STACK-B6-B17'
p564
aS'STACK-B6-B18'
p565
aS'STACK-B6-B19'
p566
aS'STACK-B6-B2'
p567
aS'STACK-B6-B20'
p568
aS'STACK-B6-B21'
p569
aS'STACK-B6-B22'
p570
aS'STACK-B6-B23'
p571
aS'STACK-B6-B24'
p572
aS'STACK-B6-B25'
p573
aS'STACK-B6-B3'
p574
aS'STACK-B6-B4'
p575
aS'STACK-B6-B5'
p576
aS'STACK-B6-B7'
p577
aS'STACK-B6-B8'
p578
aS'STACK-B6-B9'
p579
aS'STACK-B7-B1'
p580
aS'STACK-B7-B10'
p581
aS'STACK-B7-B11'
p582
aS'STACK-B7-B12'
p583
aS'STACK-B7-B13'
p584
aS'STACK-B7-B14'
p585
aS'STACK-B7-B15'
p586
aS'STACK-B7-B16'
p587
aS'STACK-B7-B17'
p588
aS'STACK-B7-B18'
p589
aS'STACK-B7-B19'
p590
aS'STACK-B7-B2'
p591
aS'STACK-B7-B20'
p592
aS'STACK-B7-B21'
p593
aS'STACK-B7-B22'
p594
aS'STACK-B7-B23'
p595
aS'STACK-B7-B24'
p596
aS'STACK-B7-B25'
p597
aS'STACK-B7-B3'
p598
aS'STACK-B7-B4'
p599
aS'STACK-B7-B5'
p600
aS'STACK-B7-B6'
p601
aS'STACK-B7-B8'
p602
aS'STACK-B7-B9'
p603
aS'STACK-B8-B1'
p604
aS'STACK-B8-B10'
p605
aS'STACK-B8-B11'
p606
aS'STACK-B8-B12'
p607
aS'STACK-B8-B13'
p608
aS'STACK-B8-B14'
p609
aS'STACK-B8-B15'
p610
aS'STACK-B8-B16'
p611
aS'STACK-B8-B17'
p612
aS'STACK-B8-B18'
p613
aS'STACK-B8-B19'
p614
aS'STACK-B8-B2'
p615
aS'STACK-B8-B20'
p616
aS'STACK-B8-B21'
p617
aS'STACK-B8-B22'
p618
aS'STACK-B8-B23'
p619
aS'STACK-B8-B24'
p620
aS'STACK-B8-B25'
p621
aS'STACK-B8-B3'
p622
aS'STACK-B8-B4'
p623
aS'STACK-B8-B5'
p624
aS'STACK-B8-B6'
p625
aS'STACK-B8-B7'
p626
aS'STACK-B8-B9'
p627
aS'STACK-B9-B1'
p628
aS'STACK-B9-B10'
p629
aS'STACK-B9-B11'
p630
aS'STACK-B9-B12'
p631
aS'STACK-B9-B13'
p632
aS'STACK-B9-B14'
p633
aS'STACK-B9-B15'
p634
aS'STACK-B9-B16'
p635
aS'STACK-B9-B17'
p636
aS'STACK-B9-B18'
p637
aS'STACK-B9-B19'
p638
aS'STACK-B9-B2'
p639
aS'STACK-B9-B20'
p640
aS'STACK-B9-B21'
p641
aS'STACK-B9-B22'
p642
aS'STACK-B9-B23'
p643
aS'STACK-B9-B24'
p644
aS'STACK-B9-B25'
p645
aS'STACK-B9-B3'
p646
aS'STACK-B9-B4'
p647
aS'STACK-B9-B5'
p648
aS'STACK-B9-B6'
p649
aS'STACK-B9-B7'
p650
aS'STACK-B9-B8'
p651
aS'UNSTACK-B1-B10'
p652
aS'UNSTACK-B1-B11'
p653
aS'UNSTACK-B1-B12'
p654
aS'UNSTACK-B1-B13'
p655
aS'UNSTACK-B1-B14'
p656
aS'UNSTACK-B1-B15'
p657
aS'UNSTACK-B1-B16'
p658
aS'UNSTACK-B1-B17'
p659
aS'UNSTACK-B1-B18'
p660
aS'UNSTACK-B1-B19'
p661
aS'UNSTACK-B1-B2'
p662
aS'UNSTACK-B1-B20'
p663
aS'UNSTACK-B1-B21'
p664
aS'UNSTACK-B1-B22'
p665
aS'UNSTACK-B1-B23'
p666
aS'UNSTACK-B1-B24'
p667
aS'UNSTACK-B1-B25'
p668
aS'UNSTACK-B1-B3'
p669
aS'UNSTACK-B1-B4'
p670
aS'UNSTACK-B1-B5'
p671
aS'UNSTACK-B1-B6'
p672
aS'UNSTACK-B1-B7'
p673
aS'UNSTACK-B1-B8'
p674
aS'UNSTACK-B1-B9'
p675
aS'UNSTACK-B10-B1'
p676
aS'UNSTACK-B10-B11'
p677
aS'UNSTACK-B10-B12'
p678
aS'UNSTACK-B10-B13'
p679
aS'UNSTACK-B10-B14'
p680
aS'UNSTACK-B10-B15'
p681
aS'UNSTACK-B10-B16'
p682
aS'UNSTACK-B10-B17'
p683
aS'UNSTACK-B10-B18'
p684
aS'UNSTACK-B10-B19'
p685
aS'UNSTACK-B10-B2'
p686
aS'UNSTACK-B10-B20'
p687
aS'UNSTACK-B10-B21'
p688
aS'UNSTACK-B10-B22'
p689
aS'UNSTACK-B10-B23'
p690
aS'UNSTACK-B10-B24'
p691
aS'UNSTACK-B10-B25'
p692
aS'UNSTACK-B10-B3'
p693
aS'UNSTACK-B10-B4'
p694
aS'UNSTACK-B10-B5'
p695
aS'UNSTACK-B10-B6'
p696
aS'UNSTACK-B10-B7'
p697
aS'UNSTACK-B10-B8'
p698
aS'UNSTACK-B10-B9'
p699
aS'UNSTACK-B11-B1'
p700
aS'UNSTACK-B11-B10'
p701
aS'UNSTACK-B11-B12'
p702
aS'UNSTACK-B11-B13'
p703
aS'UNSTACK-B11-B14'
p704
aS'UNSTACK-B11-B15'
p705
aS'UNSTACK-B11-B16'
p706
aS'UNSTACK-B11-B17'
p707
aS'UNSTACK-B11-B18'
p708
aS'UNSTACK-B11-B19'
p709
aS'UNSTACK-B11-B2'
p710
aS'UNSTACK-B11-B20'
p711
aS'UNSTACK-B11-B21'
p712
aS'UNSTACK-B11-B22'
p713
aS'UNSTACK-B11-B23'
p714
aS'UNSTACK-B11-B24'
p715
aS'UNSTACK-B11-B25'
p716
aS'UNSTACK-B11-B3'
p717
aS'UNSTACK-B11-B4'
p718
aS'UNSTACK-B11-B5'
p719
aS'UNSTACK-B11-B6'
p720
aS'UNSTACK-B11-B7'
p721
aS'UNSTACK-B11-B8'
p722
aS'UNSTACK-B11-B9'
p723
aS'UNSTACK-B12-B1'
p724
aS'UNSTACK-B12-B10'
p725
aS'UNSTACK-B12-B11'
p726
aS'UNSTACK-B12-B13'
p727
aS'UNSTACK-B12-B14'
p728
aS'UNSTACK-B12-B15'
p729
aS'UNSTACK-B12-B16'
p730
aS'UNSTACK-B12-B17'
p731
aS'UNSTACK-B12-B18'
p732
aS'UNSTACK-B12-B19'
p733
aS'UNSTACK-B12-B2'
p734
aS'UNSTACK-B12-B20'
p735
aS'UNSTACK-B12-B21'
p736
aS'UNSTACK-B12-B22'
p737
aS'UNSTACK-B12-B23'
p738
aS'UNSTACK-B12-B24'
p739
aS'UNSTACK-B12-B25'
p740
aS'UNSTACK-B12-B3'
p741
aS'UNSTACK-B12-B4'
p742
aS'UNSTACK-B12-B5'
p743
aS'UNSTACK-B12-B6'
p744
aS'UNSTACK-B12-B7'
p745
aS'UNSTACK-B12-B8'
p746
aS'UNSTACK-B12-B9'
p747
aS'UNSTACK-B13-B1'
p748
aS'UNSTACK-B13-B10'
p749
aS'UNSTACK-B13-B11'
p750
aS'UNSTACK-B13-B12'
p751
aS'UNSTACK-B13-B14'
p752
aS'UNSTACK-B13-B15'
p753
aS'UNSTACK-B13-B16'
p754
aS'UNSTACK-B13-B17'
p755
aS'UNSTACK-B13-B18'
p756
aS'UNSTACK-B13-B19'
p757
aS'UNSTACK-B13-B2'
p758
aS'UNSTACK-B13-B20'
p759
aS'UNSTACK-B13-B21'
p760
aS'UNSTACK-B13-B22'
p761
aS'UNSTACK-B13-B23'
p762
aS'UNSTACK-B13-B24'
p763
aS'UNSTACK-B13-B25'
p764
aS'UNSTACK-B13-B3'
p765
aS'UNSTACK-B13-B4'
p766
aS'UNSTACK-B13-B5'
p767
aS'UNSTACK-B13-B6'
p768
aS'UNSTACK-B13-B7'
p769
aS'UNSTACK-B13-B8'
p770
aS'UNSTACK-B13-B9'
p771
aS'UNSTACK-B14-B1'
p772
aS'UNSTACK-B14-B10'
p773
aS'UNSTACK-B14-B11'
p774
aS'UNSTACK-B14-B12'
p775
aS'UNSTACK-B14-B13'
p776
aS'UNSTACK-B14-B15'
p777
aS'UNSTACK-B14-B16'
p778
aS'UNSTACK-B14-B17'
p779
aS'UNSTACK-B14-B18'
p780
aS'UNSTACK-B14-B19'
p781
aS'UNSTACK-B14-B2'
p782
aS'UNSTACK-B14-B20'
p783
aS'UNSTACK-B14-B21'
p784
aS'UNSTACK-B14-B22'
p785
aS'UNSTACK-B14-B23'
p786
aS'UNSTACK-B14-B24'
p787
aS'UNSTACK-B14-B25'
p788
aS'UNSTACK-B14-B3'
p789
aS'UNSTACK-B14-B4'
p790
aS'UNSTACK-B14-B5'
p791
aS'UNSTACK-B14-B6'
p792
aS'UNSTACK-B14-B7'
p793
aS'UNSTACK-B14-B8'
p794
aS'UNSTACK-B14-B9'
p795
aS'UNSTACK-B15-B1'
p796
aS'UNSTACK-B15-B10'
p797
aS'UNSTACK-B15-B11'
p798
aS'UNSTACK-B15-B12'
p799
aS'UNSTACK-B15-B13'
p800
aS'UNSTACK-B15-B14'
p801
aS'UNSTACK-B15-B16'
p802
aS'UNSTACK-B15-B17'
p803
aS'UNSTACK-B15-B18'
p804
aS'UNSTACK-B15-B19'
p805
aS'UNSTACK-B15-B2'
p806
aS'UNSTACK-B15-B20'
p807
aS'UNSTACK-B15-B21'
p808
aS'UNSTACK-B15-B22'
p809
aS'UNSTACK-B15-B23'
p810
aS'UNSTACK-B15-B24'
p811
aS'UNSTACK-B15-B25'
p812
aS'UNSTACK-B15-B3'
p813
aS'UNSTACK-B15-B4'
p814
aS'UNSTACK-B15-B5'
p815
aS'UNSTACK-B15-B6'
p816
aS'UNSTACK-B15-B7'
p817
aS'UNSTACK-B15-B8'
p818
aS'UNSTACK-B15-B9'
p819
aS'UNSTACK-B16-B1'
p820
aS'UNSTACK-B16-B10'
p821
aS'UNSTACK-B16-B11'
p822
aS'UNSTACK-B16-B12'
p823
aS'UNSTACK-B16-B13'
p824
aS'UNSTACK-B16-B14'
p825
aS'UNSTACK-B16-B15'
p826
aS'UNSTACK-B16-B17'
p827
aS'UNSTACK-B16-B18'
p828
aS'UNSTACK-B16-B19'
p829
aS'UNSTACK-B16-B2'
p830
aS'UNSTACK-B16-B20'
p831
aS'UNSTACK-B16-B21'
p832
aS'UNSTACK-B16-B22'
p833
aS'UNSTACK-B16-B23'
p834
aS'UNSTACK-B16-B24'
p835
aS'UNSTACK-B16-B25'
p836
aS'UNSTACK-B16-B3'
p837
aS'UNSTACK-B16-B4'
p838
aS'UNSTACK-B16-B5'
p839
aS'UNSTACK-B16-B6'
p840
aS'UNSTACK-B16-B7'
p841
aS'UNSTACK-B16-B8'
p842
aS'UNSTACK-B16-B9'
p843
aS'UNSTACK-B17-B1'
p844
aS'UNSTACK-B17-B10'
p845
aS'UNSTACK-B17-B11'
p846
aS'UNSTACK-B17-B12'
p847
aS'UNSTACK-B17-B13'
p848
aS'UNSTACK-B17-B14'
p849
aS'UNSTACK-B17-B15'
p850
aS'UNSTACK-B17-B16'
p851
aS'UNSTACK-B17-B18'
p852
aS'UNSTACK-B17-B19'
p853
aS'UNSTACK-B17-B2'
p854
aS'UNSTACK-B17-B20'
p855
aS'UNSTACK-B17-B21'
p856
aS'UNSTACK-B17-B22'
p857
aS'UNSTACK-B17-B23'
p858
aS'UNSTACK-B17-B24'
p859
aS'UNSTACK-B17-B25'
p860
aS'UNSTACK-B17-B3'
p861
aS'UNSTACK-B17-B4'
p862
aS'UNSTACK-B17-B5'
p863
aS'UNSTACK-B17-B6'
p864
aS'UNSTACK-B17-B7'
p865
aS'UNSTACK-B17-B8'
p866
aS'UNSTACK-B17-B9'
p867
aS'UNSTACK-B18-B1'
p868
aS'UNSTACK-B18-B10'
p869
aS'UNSTACK-B18-B11'
p870
aS'UNSTACK-B18-B12'
p871
aS'UNSTACK-B18-B13'
p872
aS'UNSTACK-B18-B14'
p873
aS'UNSTACK-B18-B15'
p874
aS'UNSTACK-B18-B16'
p875
aS'UNSTACK-B18-B17'
p876
aS'UNSTACK-B18-B19'
p877
aS'UNSTACK-B18-B2'
p878
aS'UNSTACK-B18-B20'
p879
aS'UNSTACK-B18-B21'
p880
aS'UNSTACK-B18-B22'
p881
aS'UNSTACK-B18-B23'
p882
aS'UNSTACK-B18-B24'
p883
aS'UNSTACK-B18-B25'
p884
aS'UNSTACK-B18-B3'
p885
aS'UNSTACK-B18-B4'
p886
aS'UNSTACK-B18-B5'
p887
aS'UNSTACK-B18-B6'
p888
aS'UNSTACK-B18-B7'
p889
aS'UNSTACK-B18-B8'
p890
aS'UNSTACK-B18-B9'
p891
aS'UNSTACK-B19-B1'
p892
aS'UNSTACK-B19-B10'
p893
aS'UNSTACK-B19-B11'
p894
aS'UNSTACK-B19-B12'
p895
aS'UNSTACK-B19-B13'
p896
aS'UNSTACK-B19-B14'
p897
aS'UNSTACK-B19-B15'
p898
aS'UNSTACK-B19-B16'
p899
aS'UNSTACK-B19-B17'
p900
aS'UNSTACK-B19-B18'
p901
aS'UNSTACK-B19-B2'
p902
aS'UNSTACK-B19-B20'
p903
aS'UNSTACK-B19-B21'
p904
aS'UNSTACK-B19-B22'
p905
aS'UNSTACK-B19-B23'
p906
aS'UNSTACK-B19-B24'
p907
aS'UNSTACK-B19-B25'
p908
aS'UNSTACK-B19-B3'
p909
aS'UNSTACK-B19-B4'
p910
aS'UNSTACK-B19-B5'
p911
aS'UNSTACK-B19-B6'
p912
aS'UNSTACK-B19-B7'
p913
aS'UNSTACK-B19-B8'
p914
aS'UNSTACK-B19-B9'
p915
aS'UNSTACK-B2-B1'
p916
aS'UNSTACK-B2-B10'
p917
aS'UNSTACK-B2-B11'
p918
aS'UNSTACK-B2-B12'
p919
aS'UNSTACK-B2-B13'
p920
aS'UNSTACK-B2-B14'
p921
aS'UNSTACK-B2-B15'
p922
aS'UNSTACK-B2-B16'
p923
aS'UNSTACK-B2-B17'
p924
aS'UNSTACK-B2-B18'
p925
aS'UNSTACK-B2-B19'
p926
aS'UNSTACK-B2-B20'
p927
aS'UNSTACK-B2-B21'
p928
aS'UNSTACK-B2-B22'
p929
aS'UNSTACK-B2-B23'
p930
aS'UNSTACK-B2-B24'
p931
aS'UNSTACK-B2-B25'
p932
aS'UNSTACK-B2-B3'
p933
aS'UNSTACK-B2-B4'
p934
aS'UNSTACK-B2-B5'
p935
aS'UNSTACK-B2-B6'
p936
aS'UNSTACK-B2-B7'
p937
aS'UNSTACK-B2-B8'
p938
aS'UNSTACK-B2-B9'
p939
aS'UNSTACK-B20-B1'
p940
aS'UNSTACK-B20-B10'
p941
aS'UNSTACK-B20-B11'
p942
aS'UNSTACK-B20-B12'
p943
aS'UNSTACK-B20-B13'
p944
aS'UNSTACK-B20-B14'
p945
aS'UNSTACK-B20-B15'
p946
aS'UNSTACK-B20-B16'
p947
aS'UNSTACK-B20-B17'
p948
aS'UNSTACK-B20-B18'
p949
aS'UNSTACK-B20-B19'
p950
aS'UNSTACK-B20-B2'
p951
aS'UNSTACK-B20-B21'
p952
aS'UNSTACK-B20-B22'
p953
aS'UNSTACK-B20-B23'
p954
aS'UNSTACK-B20-B24'
p955
aS'UNSTACK-B20-B25'
p956
aS'UNSTACK-B20-B3'
p957
aS'UNSTACK-B20-B4'
p958
aS'UNSTACK-B20-B5'
p959
aS'UNSTACK-B20-B6'
p960
aS'UNSTACK-B20-B7'
p961
aS'UNSTACK-B20-B8'
p962
aS'UNSTACK-B20-B9'
p963
aS'UNSTACK-B21-B1'
p964
aS'UNSTACK-B21-B10'
p965
aS'UNSTACK-B21-B11'
p966
aS'UNSTACK-B21-B12'
p967
aS'UNSTACK-B21-B13'
p968
aS'UNSTACK-B21-B14'
p969
aS'UNSTACK-B21-B15'
p970
aS'UNSTACK-B21-B16'
p971
aS'UNSTACK-B21-B17'
p972
aS'UNSTACK-B21-B18'
p973
aS'UNSTACK-B21-B19'
p974
aS'UNSTACK-B21-B2'
p975
aS'UNSTACK-B21-B20'
p976
aS'UNSTACK-B21-B22'
p977
aS'UNSTACK-B21-B23'
p978
aS'UNSTACK-B21-B24'
p979
aS'UNSTACK-B21-B25'
p980
aS'UNSTACK-B21-B3'
p981
aS'UNSTACK-B21-B4'
p982
aS'UNSTACK-B21-B5'
p983
aS'UNSTACK-B21-B6'
p984
aS'UNSTACK-B21-B7'
p985
aS'UNSTACK-B21-B8'
p986
aS'UNSTACK-B21-B9'
p987
aS'UNSTACK-B22-B1'
p988
aS'UNSTACK-B22-B10'
p989
aS'UNSTACK-B22-B11'
p990
aS'UNSTACK-B22-B12'
p991
aS'UNSTACK-B22-B13'
p992
aS'UNSTACK-B22-B14'
p993
aS'UNSTACK-B22-B15'
p994
aS'UNSTACK-B22-B16'
p995
aS'UNSTACK-B22-B17'
p996
aS'UNSTACK-B22-B18'
p997
aS'UNSTACK-B22-B19'
p998
aS'UNSTACK-B22-B2'
p999
aS'UNSTACK-B22-B20'
p1000
aS'UNSTACK-B22-B21'
p1001
aS'UNSTACK-B22-B23'
p1002
aS'UNSTACK-B22-B24'
p1003
aS'UNSTACK-B22-B25'
p1004
aS'UNSTACK-B22-B3'
p1005
aS'UNSTACK-B22-B4'
p1006
aS'UNSTACK-B22-B5'
p1007
aS'UNSTACK-B22-B6'
p1008
aS'UNSTACK-B22-B7'
p1009
aS'UNSTACK-B22-B8'
p1010
aS'UNSTACK-B22-B9'
p1011
aS'UNSTACK-B23-B1'
p1012
aS'UNSTACK-B23-B10'
p1013
aS'UNSTACK-B23-B11'
p1014
aS'UNSTACK-B23-B12'
p1015
aS'UNSTACK-B23-B13'
p1016
aS'UNSTACK-B23-B14'
p1017
aS'UNSTACK-B23-B15'
p1018
aS'UNSTACK-B23-B16'
p1019
aS'UNSTACK-B23-B17'
p1020
aS'UNSTACK-B23-B18'
p1021
aS'UNSTACK-B23-B19'
p1022
aS'UNSTACK-B23-B2'
p1023
aS'UNSTACK-B23-B20'
p1024
aS'UNSTACK-B23-B21'
p1025
aS'UNSTACK-B23-B22'
p1026
aS'UNSTACK-B23-B24'
p1027
aS'UNSTACK-B23-B25'
p1028
aS'UNSTACK-B23-B3'
p1029
aS'UNSTACK-B23-B4'
p1030
aS'UNSTACK-B23-B5'
p1031
aS'UNSTACK-B23-B6'
p1032
aS'UNSTACK-B23-B7'
p1033
aS'UNSTACK-B23-B8'
p1034
aS'UNSTACK-B23-B9'
p1035
aS'UNSTACK-B24-B1'
p1036
aS'UNSTACK-B24-B10'
p1037
aS'UNSTACK-B24-B11'
p1038
aS'UNSTACK-B24-B12'
p1039
aS'UNSTACK-B24-B13'
p1040
aS'UNSTACK-B24-B14'
p1041
aS'UNSTACK-B24-B15'
p1042
aS'UNSTACK-B24-B16'
p1043
aS'UNSTACK-B24-B17'
p1044
aS'UNSTACK-B24-B18'
p1045
aS'UNSTACK-B24-B19'
p1046
aS'UNSTACK-B24-B2'
p1047
aS'UNSTACK-B24-B20'
p1048
aS'UNSTACK-B24-B21'
p1049
aS'UNSTACK-B24-B22'
p1050
aS'UNSTACK-B24-B23'
p1051
aS'UNSTACK-B24-B25'
p1052
aS'UNSTACK-B24-B3'
p1053
aS'UNSTACK-B24-B4'
p1054
aS'UNSTACK-B24-B5'
p1055
aS'UNSTACK-B24-B6'
p1056
aS'UNSTACK-B24-B7'
p1057
aS'UNSTACK-B24-B8'
p1058
aS'UNSTACK-B24-B9'
p1059
aS'UNSTACK-B25-B1'
p1060
aS'UNSTACK-B25-B10'
p1061
aS'UNSTACK-B25-B11'
p1062
aS'UNSTACK-B25-B12'
p1063
aS'UNSTACK-B25-B13'
p1064
aS'UNSTACK-B25-B14'
p1065
aS'UNSTACK-B25-B15'
p1066
aS'UNSTACK-B25-B16'
p1067
aS'UNSTACK-B25-B17'
p1068
aS'UNSTACK-B25-B18'
p1069
aS'UNSTACK-B25-B19'
p1070
aS'UNSTACK-B25-B2'
p1071
aS'UNSTACK-B25-B20'
p1072
aS'UNSTACK-B25-B21'
p1073
aS'UNSTACK-B25-B22'
p1074
aS'UNSTACK-B25-B23'
p1075
aS'UNSTACK-B25-B24'
p1076
aS'UNSTACK-B25-B3'
p1077
aS'UNSTACK-B25-B4'
p1078
aS'UNSTACK-B25-B5'
p1079
aS'UNSTACK-B25-B6'
p1080
aS'UNSTACK-B25-B7'
p1081
aS'UNSTACK-B25-B8'
p1082
aS'UNSTACK-B25-B9'
p1083
aS'UNSTACK-B3-B1'
p1084
aS'UNSTACK-B3-B10'
p1085
aS'UNSTACK-B3-B11'
p1086
aS'UNSTACK-B3-B12'
p1087
aS'UNSTACK-B3-B13'
p1088
aS'UNSTACK-B3-B14'
p1089
aS'UNSTACK-B3-B15'
p1090
aS'UNSTACK-B3-B16'
p1091
aS'UNSTACK-B3-B17'
p1092
aS'UNSTACK-B3-B18'
p1093
aS'UNSTACK-B3-B19'
p1094
aS'UNSTACK-B3-B2'
p1095
aS'UNSTACK-B3-B20'
p1096
aS'UNSTACK-B3-B21'
p1097
aS'UNSTACK-B3-B22'
p1098
aS'UNSTACK-B3-B23'
p1099
aS'UNSTACK-B3-B24'
p1100
aS'UNSTACK-B3-B25'
p1101
aS'UNSTACK-B3-B4'
p1102
aS'UNSTACK-B3-B5'
p1103
aS'UNSTACK-B3-B6'
p1104
aS'UNSTACK-B3-B7'
p1105
aS'UNSTACK-B3-B8'
p1106
aS'UNSTACK-B3-B9'
p1107
aS'UNSTACK-B4-B1'
p1108
aS'UNSTACK-B4-B10'
p1109
aS'UNSTACK-B4-B11'
p1110
aS'UNSTACK-B4-B12'
p1111
aS'UNSTACK-B4-B13'
p1112
aS'UNSTACK-B4-B14'
p1113
aS'UNSTACK-B4-B15'
p1114
aS'UNSTACK-B4-B16'
p1115
aS'UNSTACK-B4-B17'
p1116
aS'UNSTACK-B4-B18'
p1117
aS'UNSTACK-B4-B19'
p1118
aS'UNSTACK-B4-B2'
p1119
aS'UNSTACK-B4-B20'
p1120
aS'UNSTACK-B4-B21'
p1121
aS'UNSTACK-B4-B22'
p1122
aS'UNSTACK-B4-B23'
p1123
aS'UNSTACK-B4-B24'
p1124
aS'UNSTACK-B4-B25'
p1125
aS'UNSTACK-B4-B3'
p1126
aS'UNSTACK-B4-B5'
p1127
aS'UNSTACK-B4-B6'
p1128
aS'UNSTACK-B4-B7'
p1129
aS'UNSTACK-B4-B8'
p1130
aS'UNSTACK-B4-B9'
p1131
aS'UNSTACK-B5-B1'
p1132
aS'UNSTACK-B5-B10'
p1133
aS'UNSTACK-B5-B11'
p1134
aS'UNSTACK-B5-B12'
p1135
aS'UNSTACK-B5-B13'
p1136
aS'UNSTACK-B5-B14'
p1137
aS'UNSTACK-B5-B15'
p1138
aS'UNSTACK-B5-B16'
p1139
aS'UNSTACK-B5-B17'
p1140
aS'UNSTACK-B5-B18'
p1141
aS'UNSTACK-B5-B19'
p1142
aS'UNSTACK-B5-B2'
p1143
aS'UNSTACK-B5-B20'
p1144
aS'UNSTACK-B5-B21'
p1145
aS'UNSTACK-B5-B22'
p1146
aS'UNSTACK-B5-B23'
p1147
aS'UNSTACK-B5-B24'
p1148
aS'UNSTACK-B5-B25'
p1149
aS'UNSTACK-B5-B3'
p1150
aS'UNSTACK-B5-B4'
p1151
aS'UNSTACK-B5-B6'
p1152
aS'UNSTACK-B5-B7'
p1153
aS'UNSTACK-B5-B8'
p1154
aS'UNSTACK-B5-B9'
p1155
aS'UNSTACK-B6-B1'
p1156
aS'UNSTACK-B6-B10'
p1157
aS'UNSTACK-B6-B11'
p1158
aS'UNSTACK-B6-B12'
p1159
aS'UNSTACK-B6-B13'
p1160
aS'UNSTACK-B6-B14'
p1161
aS'UNSTACK-B6-B15'
p1162
aS'UNSTACK-B6-B16'
p1163
aS'UNSTACK-B6-B17'
p1164
aS'UNSTACK-B6-B18'
p1165
aS'UNSTACK-B6-B19'
p1166
aS'UNSTACK-B6-B2'
p1167
aS'UNSTACK-B6-B20'
p1168
aS'UNSTACK-B6-B21'
p1169
aS'UNSTACK-B6-B22'
p1170
aS'UNSTACK-B6-B23'
p1171
aS'UNSTACK-B6-B24'
p1172
aS'UNSTACK-B6-B25'
p1173
aS'UNSTACK-B6-B3'
p1174
aS'UNSTACK-B6-B4'
p1175
aS'UNSTACK-B6-B5'
p1176
aS'UNSTACK-B6-B7'
p1177
aS'UNSTACK-B6-B8'
p1178
aS'UNSTACK-B6-B9'
p1179
aS'UNSTACK-B7-B1'
p1180
aS'UNSTACK-B7-B10'
p1181
aS'UNSTACK-B7-B11'
p1182
aS'UNSTACK-B7-B12'
p1183
aS'UNSTACK-B7-B13'
p1184
aS'UNSTACK-B7-B14'
p1185
aS'UNSTACK-B7-B15'
p1186
aS'UNSTACK-B7-B16'
p1187
aS'UNSTACK-B7-B17'
p1188
aS'UNSTACK-B7-B18'
p1189
aS'UNSTACK-B7-B19'
p1190
aS'UNSTACK-B7-B2'
p1191
aS'UNSTACK-B7-B20'
p1192
aS'UNSTACK-B7-B21'
p1193
aS'UNSTACK-B7-B22'
p1194
aS'UNSTACK-B7-B23'
p1195
aS'UNSTACK-B7-B24'
p1196
aS'UNSTACK-B7-B25'
p1197
aS'UNSTACK-B7-B3'
p1198
aS'UNSTACK-B7-B4'
p1199
aS'UNSTACK-B7-B5'
p1200
aS'UNSTACK-B7-B6'
p1201
aS'UNSTACK-B7-B8'
p1202
aS'UNSTACK-B7-B9'
p1203
aS'UNSTACK-B8-B1'
p1204
aS'UNSTACK-B8-B10'
p1205
aS'UNSTACK-B8-B11'
p1206
aS'UNSTACK-B8-B12'
p1207
aS'UNSTACK-B8-B13'
p1208
aS'UNSTACK-B8-B14'
p1209
aS'UNSTACK-B8-B15'
p1210
aS'UNSTACK-B8-B16'
p1211
aS'UNSTACK-B8-B17'
p1212
aS'UNSTACK-B8-B18'
p1213
aS'UNSTACK-B8-B19'
p1214
aS'UNSTACK-B8-B2'
p1215
aS'UNSTACK-B8-B20'
p1216
aS'UNSTACK-B8-B21'
p1217
aS'UNSTACK-B8-B22'
p1218
aS'UNSTACK-B8-B23'
p1219
aS'UNSTACK-B8-B24'
p1220
aS'UNSTACK-B8-B25'
p1221
aS'UNSTACK-B8-B3'
p1222
aS'UNSTACK-B8-B4'
p1223
aS'UNSTACK-B8-B5'
p1224
aS'UNSTACK-B8-B6'
p1225
aS'UNSTACK-B8-B7'
p1226
aS'UNSTACK-B8-B9'
p1227
aS'UNSTACK-B9-B1'
p1228
aS'UNSTACK-B9-B10'
p1229
aS'UNSTACK-B9-B11'
p1230
aS'UNSTACK-B9-B12'
p1231
aS'UNSTACK-B9-B13'
p1232
aS'UNSTACK-B9-B14'
p1233
aS'UNSTACK-B9-B15'
p1234
aS'UNSTACK-B9-B16'
p1235
aS'UNSTACK-B9-B17'
p1236
aS'UNSTACK-B9-B18'
p1237
aS'UNSTACK-B9-B19'
p1238
aS'UNSTACK-B9-B2'
p1239
aS'UNSTACK-B9-B20'
p1240
aS'UNSTACK-B9-B21'
p1241
aS'UNSTACK-B9-B22'
p1242
aS'UNSTACK-B9-B23'
p1243
aS'UNSTACK-B9-B24'
p1244
aS'UNSTACK-B9-B25'
p1245
aS'UNSTACK-B9-B3'
p1246
aS'UNSTACK-B9-B4'
p1247
aS'UNSTACK-B9-B5'
p1248
aS'UNSTACK-B9-B6'
p1249
aS'UNSTACK-B9-B7'
p1250
aS'UNSTACK-B9-B8'
p1251
a(dp1252
g751
I749
sg270
I268
sg554
I552
sg892
I890
sg260
I258
sg259
I257
sg258
I256
sg257
I255
sg256
I254
sg255
I253
sg1113
I1111
sg901
I899
sg1095
I1093
sg784
I782
sg783
I781
sg555
I553
sg752
I750
sg788
I786
sg787
I785
sg900
I898
sg380
I378
sg1054
I1052
sg314
I312
sg315
I313
sg312
I310
sg313
I311
sg310
I308
sg311
I309
sg302
I300
sg309
I307
sg292
I290
sg884
I882
sg883
I881
sg698
I696
sg699
I697
sg880
I878
sg879
I877
sg882
I880
sg881
I879
sg686
I684
sg693
I691
sg676
I674
sg696
I694
sg697
I695
sg694
I692
sg695
I693
sg727
I725
sg998
I996
sg1155
I1153
sg1154
I1152
sg1100
I1098
sg1101
I1099
sg1151
I1149
sg1096
I1094
sg932
I930
sg1098
I1096
sg1099
I1097
sg1033
I1031
sg1213
I1211
sg1214
I1212
sg1117
I1115
sg1197
I1195
sg856
I854
sg1207
I1205
sg1208
I1206
sg1205
I1203
sg1118
I1116
sg1056
I1054
sg1212
I1210
sg927
I925
sg1210
I1208
sg1130
I1128
sg1131
I1129
sg1127
I1125
sg1128
I1126
sg1129
I1127
sg1070
I1068
sg1045
I1043
sg1119
I1117
sg1126
I1124
sg1114
I1112
sg1024
I1022
sg937
I935
sg1169
I1167
sg404
I402
sg403
I401
sg402
I400
sg401
I399
sg400
I398
sg416
I414
sg415
I413
sg414
I412
sg413
I411
sg420
I418
sg419
I417
sg418
I416
sg417
I415
sg422
I420
sg421
I419
sg918
I916
sg1058
I1056
sg435
I433
sg965
I963
sg362
I360
sg363
I361
sg662
I660
sg351
I349
sg357
I355
sg340
I338
sg360
I358
sg361
I359
sg358
I356
sg359
I357
sg716
I714
sg731
I729
sg1125
I1123
sg970
I968
sg959
I957
sg1052
I1050
sg470
I468
sg469
I467
sg958
I956
sg466
I464
sg465
I463
sg468
I466
sg467
I465
sg462
I460
sg461
I459
sg464
I462
sg463
I461
sg524
I522
sg525
I523
sg520
I518
sg521
I519
sg522
I520
sg523
I521
sg942
I940
sg940
I938
sg944
I942
sg943
I941
sg946
I944
sg945
I943
sg948
I946
sg947
I945
sg807
I805
sg808
I806
sg809
I807
sg810
I808
sg811
I809
sg812
I810
sg893
I891
sg885
I883
sg951
I949
sg786
I784
sg860
I858
sg980
I978
sg979
I977
sg785
I783
sg627
I625
sg976
I974
sg978
I976
sg80
I78
sg624
I622
sg623
I621
sg626
I624
sg625
I623
sg604
I602
sg83
I81
sg622
I620
sg615
I613
sg82
I80
sg835
I833
sg77
I75
sg899
I897
sg1168
I1166
sg616
I614
sg79
I77
sg617
I615
sg1001
I999
sg931
I929
sg78
I76
sg618
I616
sg619
I617
sg853
I851
sg852
I850
sg620
I618
sg850
I848
sg849
I847
sg848
I846
sg847
I845
sg846
I844
sg621
I619
sg917
I915
sg589
I587
sg682
I680
sg613
I611
sg1011
I1009
sg683
I681
sg919
I917
sg836
I834
sg920
I918
sg895
I893
sg713
I711
sg120
I118
sg121
I119
sg118
I116
sg119
I117
sg110
I108
sg117
I115
sg100
I98
sg923
I921
sg122
I120
sg123
I121
sg172
I170
sg189
I187
sg182
I180
sg191
I189
sg190
I188
sg193
I191
sg192
I190
sg195
I193
sg194
I192
sg1133
I1131
sg1080
I1078
sg1013
I1011
sg1081
I1079
sg834
I832
sg1078
I1076
sg760
I758
sg609
I607
sg1079
I1077
sg1146
I1144
sg1071
I1069
sg501
I499
sg500
I498
sg499
I497
sg498
I496
sg497
I495
sg496
I494
sg1108
I1106
sg574
I572
sg677
I675
sg567
I565
sg987
I985
sg1060
I1058
sg845
I843
sg868
I866
sg1171
I1169
sg1166
I1164
sg577
I575
sg210
I208
sg889
I887
sg678
I676
sg576
I574
sg458
I456
sg459
I457
sg456
I454
sg457
I455
sg454
I452
sg455
I453
sg447
I445
sg453
I451
sg436
I434
sg902
I900
sg877
I875
sg1082
I1080
sg993
I991
sg579
I577
sg679
I677
sg578
I576
sg1189
I1187
sg1063
I1061
sg1179
I1177
sg1167
I1165
sg1055
I1053
sg1156
I1154
sg1177
I1175
sg1175
I1173
sg680
I678
sg183
I181
sg284
I282
sg185
I183
sg186
I184
sg187
I185
sg188
I186
sg281
I279
sg282
I280
sg966
I964
sg1065
I1063
sg128
I126
sg774
I772
sg1152
I1150
sg681
I679
sg34
I32
sg35
I33
sg1150
I1148
sg866
I864
sg32
I30
sg1147
I1145
sg1097
I1095
sg5
I3
sg6
I4
sg3
I1
sg4
I2
sg9
I7
sg10
I8
sg7
I5
sg8
I6
sg320
I318
sg319
I317
sg11
I9
sg12
I10
sg324
I322
sg323
I321
sg322
I320
sg321
I319
sg508
I506
sg526
I524
sg519
I517
sg527
I525
sg28
I26
sg529
I527
sg528
I526
sg531
I529
sg530
I528
sg29
I27
sg1076
I1074
sg1141
I1139
sg1228
I1226
sg1185
I1183
sg135
I133
sg921
I919
sg1246
I1244
sg136
I134
sg969
I967
sg1204
I1202
sg641
I639
sg640
I638
sg643
I641
sg642
I640
sg645
I643
sg644
I642
sg2
I0
sg231
I229
sg1188
I1186
sg140
I138
sg1249
I1247
sg197
I195
sg198
I196
sg199
I197
sg200
I198
sg201
I199
sg903
I901
sg202
I200
sg203
I201
sg204
I202
sg205
I203
sg1226
I1224
sg887
I885
sg746
I744
sg747
I745
sg851
I849
sg888
I886
sg549
I547
sg548
I546
sg734
I732
sg741
I739
sg545
I543
sg544
I542
sg547
I545
sg546
I544
sg971
I969
sg1043
I1041
sg842
I840
sg843
I841
sg1158
I1156
sg838
I836
sg839
I837
sg840
I838
sg841
I839
sg820
I818
sg20
I18
sg837
I835
sg1211
I1209
sg1190
I1188
sg1182
I1180
sg1194
I1192
sg1218
I1216
sg972
I970
sg936
I934
sg352
I350
sg934
I932
sg935
I933
sg933
I931
sg916
I914
sg21
I19
sg950
I948
sg938
I936
sg939
I937
sg886
I884
sg1248
I1246
sg1216
I1214
sg1181
I1179
sg904
I902
sg1236
I1234
sg575
I573
sg1219
I1217
sg1235
I1233
sg614
I612
sg587
I585
sg1160
I1158
sg588
I586
sg606
I604
sg605
I603
sg608
I606
sg607
I605
sg610
I608
sg585
I583
sg612
I610
sg611
I609
sg1247
I1245
sg1184
I1182
sg586
I584
sg957
I955
sg801
I799
sg1241
I1239
sg1238
I1236
sg1172
I1170
sg819
I817
sg764
I762
sg1237
I1235
sg867
I865
sg818
I816
sg865
I863
sg864
I862
sg863
I861
sg862
I860
sg861
I859
sg854
I852
sg844
I842
sg1183
I1181
sg247
I245
sg968
I966
sg1222
I1220
sg1223
I1221
sg1224
I1222
sg1225
I1223
sg248
I246
sg1227
I1225
sg245
I243
sg1232
I1230
sg1231
I1229
sg1230
I1228
sg344
I342
sg805
I803
sg804
I802
sg1234
I1232
sg1233
I1231
sg345
I343
sg803
I801
sg802
I800
sg798
I796
sg797
I795
sg800
I798
sg799
I797
sg387
I385
sg386
I384
sg347
I345
sg364
I362
sg762
I760
sg381
I379
sg348
I346
sg383
I381
sg382
I380
sg385
I383
sg384
I382
sg181
I179
sg180
I178
sg532
I530
sg277
I275
sg553
I551
sg551
I549
sg274
I272
sg273
I271
sg276
I274
sg175
I173
sg177
I175
sg269
I267
sg179
I177
sg271
I269
sg761
I759
sg817
I815
sg890
I888
sg780
I778
sg759
I757
sg781
I779
sg297
I295
sg298
I296
sg299
I297
sg300
I298
sg293
I291
sg294
I292
sg295
I293
sg296
I294
sg905
I903
sg301
I299
sg763
I761
sg908
I906
sg17
I15
sg16
I14
sg15
I13
sg14
I12
sg19
I17
sg18
I16
sg1140
I1138
sg543
I541
sg1138
I1136
sg1137
I1135
sg1136
I1134
sg1135
I1133
sg651
I649
sg550
I548
sg649
I647
sg650
I648
sg647
I645
sg648
I646
sg639
I637
sg646
I644
sg1142
I1140
sg628
I626
sg1206
I1204
sg1134
I1132
sg232
I230
sg595
I593
sg552
I550
sg593
I591
sg592
I590
sg597
I595
sg596
I594
sg1203
I1201
sg1202
I1200
sg1200
I1198
sg1199
I1197
sg1201
I1199
sg1073
I1071
sg1178
I1176
sg1198
I1196
sg1191
I1189
sg629
I627
sg174
I172
sg631
I629
sg632
I630
sg633
I631
sg634
I632
sg635
I633
sg173
I171
sg637
I635
sg638
I636
sg725
I723
sg726
I724
sg730
I728
sg176
I174
sg728
I726
sg729
I727
sg25
I23
sg26
I24
sg275
I273
sg243
I241
sg242
I240
sg241
I239
sg240
I238
sg239
I237
sg209
I207
sg237
I235
sg211
I209
sg220
I218
sg24
I22
sg493
I491
sg494
I492
sg272
I270
sg1174
I1172
sg487
I485
sg488
I486
sg485
I483
sg178
I176
sg491
I489
sg492
I490
sg489
I487
sg490
I488
sg95
I93
sg94
I92
sg97
I95
sg96
I94
sg76
I74
sg534
I532
sg93
I91
sg86
I84
sg1034
I1032
sg1035
I1033
sg929
I927
sg99
I97
sg98
I96
sg569
I567
sg1176
I1174
sg1049
I1047
sg911
I909
sg896
I894
sg283
I281
sg750
I748
sg749
I747
sg755
I753
sg754
I752
sg753
I751
sg184
I182
sg304
I302
sg757
I755
sg756
I754
sg303
I301
sg1192
I1190
sg1162
I1160
sg279
I277
sg910
I908
sg280
I278
sg661
I659
sg660
I658
sg1123
I1121
sg1122
I1120
sg1121
I1119
sg1120
I1118
sg655
I653
sg654
I652
sg653
I651
sg652
I650
sg659
I657
sg658
I656
sg657
I655
sg656
I654
sg441
I439
sg442
I440
sg443
I441
sg444
I442
sg437
I435
sg438
I436
sg439
I437
sg440
I438
sg684
I682
sg685
I683
sg913
I911
sg445
I443
sg446
I444
sg711
I709
sg1042
I1040
sg872
I870
sg1132
I1130
sg1041
I1039
sg1021
I1019
sg424
I422
sg1075
I1073
sg1015
I1013
sg1014
I1012
sg912
I910
sg712
I710
sg1037
I1035
sg1153
I1151
sg793
I791
sg1242
I1240
sg1243
I1241
sg1240
I1238
sg1039
I1037
sg1244
I1242
sg1245
I1243
sg930
I928
sg1016
I1014
sg331
I329
sg332
I330
sg329
I327
sg330
I328
sg327
I325
sg328
I326
sg434
I432
sg738
I736
sg737
I735
sg736
I734
sg735
I733
sg740
I738
sg739
I737
sg796
I794
sg813
I811
sg806
I804
sg815
I813
sg814
I812
sg486
I484
sg816
I814
sg714
I712
sg46
I44
sg47
I45
sg48
I46
sg49
I47
sg928
I926
sg27
I25
sg38
I36
sg45
I43
sg308
I306
sg307
I305
sg50
I48
sg51
I49
sg306
I304
sg305
I303
sg433
I431
sg432
I430
sg431
I429
sg430
I428
sg429
I427
sg423
I421
sg412
I410
sg91
I89
sg92
I90
sg1217
I1215
sg87
I85
sg88
I86
sg89
I87
sg90
I88
sg599
I597
sg600
I598
sg601
I599
sg1149
I1147
sg1209
I1207
sg580
I578
sg591
I589
sg598
I596
sg1025
I1023
sg1148
I1146
sg1019
I1017
sg602
I600
sg129
I127
sg1144
I1142
sg603
I601
sg42
I40
sg41
I39
sg1145
I1143
sg40
I38
sg39
I37
sg132
I130
sg1020
I1018
sg1091
I1089
sg33
I31
sg898
I896
sg1107
I1105
sg1106
I1104
sg44
I42
sg156
I154
sg1084
I1082
sg43
I41
sg1103
I1101
sg1102
I1100
sg1105
I1103
sg1104
I1102
sg1017
I1015
sg375
I373
sg30
I28
sg897
I895
sg564
I562
sg563
I561
sg562
I560
sg561
I559
sg560
I558
sg559
I557
sg558
I556
sg557
I555
sg765
I763
sg758
I756
sg748
I746
sg1187
I1185
sg769
I767
sg768
I766
sg566
I564
sg565
I563
sg506
I504
sg507
I505
sg1067
I1065
sg1068
I1066
sg1061
I1059
sg1018
I1016
sg821
I819
sg1064
I1062
sg1048
I1046
sg484
I482
sg495
I493
sg1051
I1049
sg502
I500
sg326
I324
sg504
I502
sg505
I503
sg1002
I1000
sg1000
I998
sg325
I323
sg108
I106
sg109
I107
sg794
I792
sg795
I793
sg104
I102
sg105
I103
sg106
I104
sg107
I105
sg101
I99
sg789
I787
sg102
I100
sg103
I101
sg715
I713
sg949
I947
sg72
I70
sg73
I71
sg70
I68
sg71
I69
sg62
I60
sg69
I67
sg376
I374
sg377
I375
sg378
I376
sg379
I377
sg318
I316
sg74
I72
sg75
I73
sg141
I139
sg134
I132
sg124
I122
sg317
I315
sg145
I143
sg144
I142
sg143
I141
sg142
I140
sg1115
I1113
sg1116
I1114
sg147
I145
sg146
I144
sg1111
I1109
sg1112
I1110
sg1109
I1107
sg1110
I1108
sg665
I663
sg666
I664
sg663
I661
sg664
I662
sg963
I961
sg962
I960
sg667
I665
sg668
I666
sg452
I450
sg518
I516
sg961
I959
sg960
I958
sg449
I447
sg448
I446
sg451
I449
sg450
I448
sg81
I79
sg244
I242
sg254
I252
sg261
I259
sg262
I260
sg263
I261
sg264
I262
sg265
I263
sg266
I264
sg267
I265
sg1180
I1178
sg85
I83
sg84
I82
sg590
I588
sg594
I592
sg1022
I1020
sg1143
I1141
sg859
I857
sg483
I481
sg482
I480
sg1195
I1193
sg479
I477
sg478
I476
sg481
I479
sg480
I478
sg460
I458
sg477
I475
sg471
I469
sg154
I152
sg155
I153
sg152
I150
sg153
I151
sg151
I149
sg31
I29
sg149
I147
sg150
I148
sg137
I135
sg138
I136
sg235
I233
sg236
I234
sg233
I231
sg234
I232
sg139
I137
sg157
I155
sg1139
I1137
sg1124
I1122
sg941
I939
sg349
I347
sg350
I348
sg252
I250
sg253
I251
sg583
I581
sg584
I582
sg581
I579
sg582
I580
sg341
I339
sg342
I340
sg343
I341
sg246
I244
sg251
I249
sg346
I344
sg249
I247
sg250
I248
sg64
I62
sg63
I61
sg66
I64
sg65
I63
sg68
I66
sg67
I65
sg907
I905
sg777
I775
sg778
I776
sg779
I777
sg773
I771
sg427
I425
sg775
I773
sg776
I774
sg428
I426
sg426
I424
sg770
I768
sg396
I394
sg116
I114
sg115
I113
sg1012
I1010
sg112
I110
sg111
I109
sg114
I112
sg113
I111
sg869
I867
sg870
I868
sg871
I869
sg425
I423
sg873
I871
sg874
I872
sg875
I873
sg876
I874
sg1057
I1055
sg1086
I1084
sg1023
I1021
sg1088
I1086
sg1087
I1085
sg1090
I1088
sg1089
I1087
sg1092
I1090
sg630
I628
sg1094
I1092
sg1093
I1091
sg955
I953
sg732
I730
sg733
I731
sg36
I34
sg1029
I1027
sg1005
I1003
sg891
I889
sg999
I997
sg956
I954
sg670
I668
sg636
I634
sg1074
I1072
sg391
I389
sg392
I390
sg389
I387
sg390
I388
sg395
I393
sg37
I35
sg393
I391
sg394
I392
sg397
I395
sg398
I396
sg1030
I1028
sg1072
I1070
sg410
I408
sg411
I409
sg988
I986
sg1009
I1007
sg1008
I1006
sg1007
I1005
sg1006
I1004
sg692
I690
sg388
I386
sg399
I397
sg405
I403
sg406
I404
sg407
I405
sg408
I406
sg409
I407
sg701
I699
sg703
I701
sg702
I700
sg705
I703
sg704
I702
sg707
I705
sg691
I689
sg709
I707
sg708
I706
sg990
I988
sg989
I987
sg996
I994
sg995
I993
sg994
I992
sg792
I790
sg1239
I1237
sg1010
I1008
sg688
I686
sg1083
I1081
sg687
I685
sg719
I717
sg718
I716
sg721
I719
sg720
I718
sg700
I698
sg690
I688
sg674
I672
sg710
I708
sg1059
I1057
sg1032
I1030
sg689
I687
sg723
I721
sg722
I720
sg828
I826
sg829
I827
sg366
I364
sg365
I363
sg368
I366
sg367
I365
sg370
I368
sg369
I367
sg372
I370
sg371
I369
sg374
I372
sg373
I371
sg952
I950
sg953
I951
sg954
I952
sg208
I206
sg997
I995
sg767
I765
sg207
I205
sg766
I764
sg13
I11
sg973
I971
sg974
I972
sg675
I673
sg238
I236
sg1066
I1064
sg669
I667
sg212
I210
sg967
I965
sg706
I704
sg673
I671
sg672
I670
sg671
I669
sg22
I20
sg992
I990
sg1170
I1168
sg23
I21
sg991
I989
sg1173
I1171
sg1062
I1060
sg337
I335
sg336
I334
sg335
I333
sg334
I332
sg333
I331
sg922
I920
sg316
I314
sg924
I922
sg925
I923
sg926
I924
sg339
I337
sg338
I336
sg206
I204
sg213
I211
sg556
I554
sg196
I194
sg216
I214
sg217
I215
sg214
I212
sg215
I213
sg1026
I1024
sg218
I216
sg219
I217
sg1050
I1048
sg1028
I1026
sg1027
I1025
sg1077
I1075
sg1069
I1067
sg1047
I1045
sg1229
I1227
sg503
I501
sg166
I164
sg167
I165
sg168
I166
sg169
I167
sg1250
I1248
sg148
I146
sg158
I156
sg165
I163
sg1036
I1034
sg1251
I1249
sg170
I168
sg171
I169
sg60
I58
sg61
I59
sg354
I352
sg353
I351
sg356
I354
sg355
I353
sg1221
I1219
sg1220
I1218
sg52
I50
sg53
I51
sg54
I52
sg55
I53
sg56
I54
sg57
I55
sg58
I56
sg59
I57
sg975
I973
sg981
I979
sg964
I962
sg984
I982
sg832
I830
sg982
I980
sg983
I981
sg915
I913
sg986
I984
sg831
I829
sg914
I912
sg537
I535
sg1215
I1213
sg1003
I1001
sg538
I536
sg724
I722
sg1004
I1002
sg539
I537
sg570
I568
sg571
I569
sg568
I566
sg540
I538
sg1165
I1163
sg1085
I1083
sg572
I570
sg573
I571
sg1161
I1159
sg533
I531
sg1163
I1161
sg1164
I1162
sg1157
I1155
sg790
I788
sg1159
I1157
sg1031
I1029
sg977
I975
sg878
I876
sg1044
I1042
sg791
I789
sg1038
I1036
sg535
I533
sg1040
I1038
sg827
I825
sg782
I780
sg536
I534
sg1046
I1044
sg825
I823
sg826
I824
sg909
I907
sg517
I515
sg823
I821
sg772
I770
sg824
I822
sg1186
I1184
sg717
I715
sg541
I539
sg822
I820
sg542
I540
sg476
I474
sg894
I892
sg472
I470
sg473
I471
sg474
I472
sg475
I473
sg514
I512
sg513
I511
sg516
I514
sg515
I513
sg510
I508
sg509
I507
sg512
I510
sg511
I509
sg131
I129
sg130
I128
sg742
I740
sg229
I227
sg743
I741
sg159
I157
sg744
I742
sg906
I904
sg771
I769
sg857
I855
sg745
I743
sg858
I856
sg985
I983
sg126
I124
sg125
I123
sg855
I853
sg291
I289
sg290
I288
sg1053
I1051
sg287
I285
sg286
I284
sg289
I287
sg288
I286
sg268
I266
sg833
I831
sg285
I283
sg278
I276
sg830
I828
sg1196
I1194
sg230
I228
sg1193
I1191
sg162
I160
sg161
I159
sg160
I158
sg228
I226
sg127
I125
sg133
I131
sg164
I162
sg163
I161
sg224
I222
sg223
I221
sg222
I220
sg221
I219
sg227
I225
sg226
I224
sg225
I223
st.